target datalayout = "e-m:e-p270:32:32-p271:32:32-p272:64:64-i64:64-i128:128-f80:128-n8:16:32:64-S128"
target triple = "x86_64-pc-linux-gnu"

%struct.FunctionCallInfoBaseData = type { ptr, ptr, ptr, i32, i8, i16, [0 x %struct.NullableDatum] }
%struct.NullableDatum = type { i64, i8 }
%struct.macaddr = type { i8, i8, i8, i8, i8, i8 }

; Function Attrs: inlinehint nounwind uwtable
define internal i64 @PointerGetDatum(ptr noundef %0) #2 {
  %2 = alloca ptr, align 8
  store ptr %0, ptr %2, align 8
  %3 = load ptr, ptr %2, align 8
  %4 = ptrtoint ptr %3 to i64
  ret i64 %4
}

; Function Attrs: inlinehint nounwind uwtable
define internal ptr @DatumGetPointer(i64 noundef %0) #2 {
  %2 = alloca i64, align 8
  store i64 %0, ptr %2, align 8
  %3 = load i64, ptr %2, align 8
  %4 = inttoptr i64 %3 to ptr
  ret ptr %4
}

; Function Attrs: inlinehint nounwind uwtable
define internal i64 @MacaddrPGetDatum(ptr noundef %0) #2 {
  %2 = alloca ptr, align 8
  store ptr %0, ptr %2, align 8
  %3 = load ptr, ptr %2, align 8
  %4 = call i64 @PointerGetDatum(ptr noundef %3)
  ret i64 %4
}

; Function Attrs: inlinehint nounwind uwtable
define internal ptr @DatumGetMacaddrP(i64 noundef %0) #2 {
  %2 = alloca i64, align 8
  store i64 %0, ptr %2, align 8
  %3 = load i64, ptr %2, align 8
  %4 = call ptr @DatumGetPointer(i64 noundef %3)
  ret ptr %4
}

; Function Attrs: nounwind uwtable
define dso_local i64 @macaddr_not(ptr noundef %0) #0 {
  %2 = alloca ptr, align 8
  %3 = alloca ptr, align 8
  %4 = alloca ptr, align 8
  store ptr %0, ptr %2, align 8
  call void @llvm.lifetime.start.p0(i64 8, ptr %3) #9
  %5 = load ptr, ptr %2, align 8
  %6 = getelementptr inbounds nuw %struct.FunctionCallInfoBaseData, ptr %5, i32 0, i32 6
  %7 = getelementptr inbounds [0 x %struct.NullableDatum], ptr %6, i64 0, i64 0
  %8 = getelementptr inbounds nuw %struct.NullableDatum, ptr %7, i32 0, i32 0
  %9 = load i64, ptr %8, align 8
  %10 = call ptr @DatumGetMacaddrP(i64 noundef %9)
  store ptr %10, ptr %3, align 8
  call void @llvm.lifetime.start.p0(i64 8, ptr %4) #9
  %11 = call ptr @palloc(i64 noundef 6)
  store ptr %11, ptr %4, align 8
  %12 = load ptr, ptr %3, align 8
  %13 = getelementptr inbounds nuw %struct.macaddr, ptr %12, i32 0, i32 0
  %14 = load i8, ptr %13, align 1
  %15 = zext i8 %14 to i32
  %16 = xor i32 %15, -1
  %17 = trunc i32 %16 to i8
  %18 = load ptr, ptr %4, align 8
  %19 = getelementptr inbounds nuw %struct.macaddr, ptr %18, i32 0, i32 0
  store i8 %17, ptr %19, align 1
  %20 = load ptr, ptr %3, align 8
  %21 = getelementptr inbounds nuw %struct.macaddr, ptr %20, i32 0, i32 1
  %22 = load i8, ptr %21, align 1
  %23 = zext i8 %22 to i32
  %24 = xor i32 %23, -1
  %25 = trunc i32 %24 to i8
  %26 = load ptr, ptr %4, align 8
  %27 = getelementptr inbounds nuw %struct.macaddr, ptr %26, i32 0, i32 1
  store i8 %25, ptr %27, align 1
  %28 = load ptr, ptr %3, align 8
  %29 = getelementptr inbounds nuw %struct.macaddr, ptr %28, i32 0, i32 2
  %30 = load i8, ptr %29, align 1
  %31 = zext i8 %30 to i32
  %32 = xor i32 %31, -1
  %33 = trunc i32 %32 to i8
  %34 = load ptr, ptr %4, align 8
  %35 = getelementptr inbounds nuw %struct.macaddr, ptr %34, i32 0, i32 2
  store i8 %33, ptr %35, align 1
  %36 = load ptr, ptr %3, align 8
  %37 = getelementptr inbounds nuw %struct.macaddr, ptr %36, i32 0, i32 3
  %38 = load i8, ptr %37, align 1
  %39 = zext i8 %38 to i32
  %40 = xor i32 %39, -1
  %41 = trunc i32 %40 to i8
  %42 = load ptr, ptr %4, align 8
  %43 = getelementptr inbounds nuw %struct.macaddr, ptr %42, i32 0, i32 3
  store i8 %41, ptr %43, align 1
  %44 = load ptr, ptr %3, align 8
  %45 = getelementptr inbounds nuw %struct.macaddr, ptr %44, i32 0, i32 4
  %46 = load i8, ptr %45, align 1
  %47 = zext i8 %46 to i32
  %48 = xor i32 %47, -1
  %49 = trunc i32 %48 to i8
  %50 = load ptr, ptr %4, align 8
  %51 = getelementptr inbounds nuw %struct.macaddr, ptr %50, i32 0, i32 4
  store i8 %49, ptr %51, align 1
  %52 = load ptr, ptr %3, align 8
  %53 = getelementptr inbounds nuw %struct.macaddr, ptr %52, i32 0, i32 5
  %54 = load i8, ptr %53, align 1
  %55 = zext i8 %54 to i32
  %56 = xor i32 %55, -1
  %57 = trunc i32 %56 to i8
  %58 = load ptr, ptr %4, align 8
  %59 = getelementptr inbounds nuw %struct.macaddr, ptr %58, i32 0, i32 5
  store i8 %57, ptr %59, align 1
  %60 = load ptr, ptr %4, align 8
  %61 = call i64 @MacaddrPGetDatum(ptr noundef %60)
  call void @llvm.lifetime.end.p0(i64 8, ptr %4) #9
  call void @llvm.lifetime.end.p0(i64 8, ptr %3) #9
  ret i64 %61
}