; Function Attrs: nounwind uwtable
define dso_local noundef i64 @macaddr_not(ptr noundef readonly captures(none) %0) local_unnamed_addr #0 {
  %2 = getelementptr inbounds nuw i8, ptr %0, i64 32
  %3 = load i64, ptr %2, align 8
  %4 = inttoptr i64 %3 to ptr
  %5 = tail call ptr @palloc(i64 noundef 6) #7
  %6 = load i8, ptr %4, align 1
  %7 = xor i8 %6, -1
  store i8 %7, ptr %5, align 1
  %8 = getelementptr inbounds nuw i8, ptr %4, i64 1
  %9 = load i8, ptr %8, align 1
  %10 = xor i8 %9, -1
  %11 = getelementptr inbounds nuw i8, ptr %5, i64 1
  store i8 %10, ptr %11, align 1
  %12 = getelementptr inbounds nuw i8, ptr %4, i64 2
  %13 = load i8, ptr %12, align 1
  %14 = xor i8 %13, -1
  %15 = getelementptr inbounds nuw i8, ptr %5, i64 2
  store i8 %14, ptr %15, align 1
  %16 = getelementptr inbounds nuw i8, ptr %4, i64 3
  %17 = load i8, ptr %16, align 1
  %18 = xor i8 %17, -1
  %19 = getelementptr inbounds nuw i8, ptr %5, i64 3
  store i8 %18, ptr %19, align 1
  %20 = getelementptr inbounds nuw i8, ptr %4, i64 4
  %21 = load i8, ptr %20, align 1
  %22 = xor i8 %21, -1
  %23 = getelementptr inbounds nuw i8, ptr %5, i64 4
  store i8 %22, ptr %23, align 1
  %24 = getelementptr inbounds nuw i8, ptr %4, i64 5
  %25 = load i8, ptr %24, align 1
  %26 = xor i8 %25, -1
  %27 = getelementptr inbounds nuw i8, ptr %5, i64 5
  store i8 %26, ptr %27, align 1
  %28 = ptrtoint ptr %5 to i64
  ret i64 %28
}